; Function Attrs: mustprogress nounwind uwtable
define hidden void @_ZN12JvmtiEnvBase10initializeEv(ptr noundef nonnull align 8 dereferenceable(460) %0) local_unnamed_addr #0 align 2 {
  %2 = load i32, ptr @_ZN7Threads18_number_of_threadsE, align 4
  %.not7 = icmp eq i32 %2, 0
  br i1 %.not7, label %_ZN16JvmtiEnvIteratorC2Ev.exit.preheader, label %3

3:                                                ; preds = %1
  %4 = tail call align 8 ptr @llvm.threadlocal.address.p0(ptr align 8 @_ZN6Thread12_thr_currentE)
  %5 = load ptr, ptr %4, align 8
  %6 = getelementptr inbounds i8, ptr %5, i64 844
  %7 = load volatile i32, ptr %6, align 4
  %8 = add nsw i32 %7, 1
  store volatile i32 %8, ptr %6, align 4
  br label %_ZN16JvmtiEnvIteratorC2Ev.exit.preheader

_ZN16JvmtiEnvIteratorC2Ev.exit.preheader:         ; preds = %1, %3
  br label %_ZN16JvmtiEnvIteratorC2Ev.exit

_ZN16JvmtiEnvIteratorC2Ev.exit:                   ; preds = %_ZN16JvmtiEnvIteratorC2Ev.exit.preheader, %_ZN16JvmtiEnvIteratorC2Ev.exit
  %.06 = phi ptr [ %.0, %_ZN16JvmtiEnvIteratorC2Ev.exit ], [ null, %_ZN16JvmtiEnvIteratorC2Ev.exit.preheader ]
  %.0.in = phi ptr [ %9, %_ZN16JvmtiEnvIteratorC2Ev.exit ], [ @_ZN12JvmtiEnvBase17_head_environmentE, %_ZN16JvmtiEnvIteratorC2Ev.exit.preheader ]
  %.0 = load ptr, ptr %.0.in, align 8
  %.not = icmp eq ptr %.0, null
  %9 = getelementptr inbounds i8, ptr %.0, i64 16
  br i1 %.not, label %10, label %_ZN16JvmtiEnvIteratorC2Ev.exit, !llvm.loop !6

10:                                               ; preds = %_ZN16JvmtiEnvIteratorC2Ev.exit
  %11 = icmp eq ptr %.06, null
  %12 = getelementptr inbounds i8, ptr %.06, i64 16
  %.sink = select i1 %11, ptr @_ZN12JvmtiEnvBase17_head_environmentE, ptr %12
  store ptr %0, ptr %.sink, align 8
  br i1 %.not7, label %_ZN16JvmtiEnvIteratorD2Ev.exit, label %13

13:                                               ; preds = %10
  %14 = tail call align 8 ptr @llvm.threadlocal.address.p0(ptr align 8 @_ZN6Thread12_thr_currentE)
  %15 = load ptr, ptr %14, align 8
  %16 = getelementptr inbounds i8, ptr %15, i64 844
  %17 = load volatile i32, ptr %16, align 4
  %18 = add nsw i32 %17, -1
  store volatile i32 %18, ptr %16, align 4
  br label %_ZN16JvmtiEnvIteratorD2Ev.exit

_ZN16JvmtiEnvIteratorD2Ev.exit:                   ; preds = %10, %13
  %19 = load i8, ptr @_ZN12JvmtiEnvBase21_globally_initializedE, align 1
  %20 = and i8 %19, 1
  %21 = icmp eq i8 %20, 0
  br i1 %21, label %22, label %23

22:                                               ; preds = %_ZN16JvmtiEnvIteratorD2Ev.exit
  tail call void @_ZN23JvmtiManageCapabilities10initializeEv() #18
  tail call void @_ZN15JvmtiExtensions19register_extensionsEv() #18
  tail call void @_ZN10JvmtiTrace10initializeEv() #18
  store i8 1, ptr @_ZN12JvmtiEnvBase21_globally_initializedE, align 1
  br label %23

23:                                               ; preds = %22, %_ZN16JvmtiEnvIteratorD2Ev.exit
  ret void
}